Certificate:
    Data:
        Version: 3 (0x2)
        Serial Number: 63 (0x3f)
    Signature Algorithm: sha256WithRSAEncryption
        Issuer: CN=DirectMix.Hard
        Validity
            Not Before: Jul  6 18:17:11 2016 GMT
            Not After : Jul  4 18:17:11 2026 GMT
        Subject: CN=mixed.directmix.lab
        Subject Public Key Info:
            Public Key Algorithm: rsaEncryption
                Public-Key: (2048 bit)
                Modulus:
                    00:af:df:09:8f:d4:3c:8d:8a:9c:85:c6:11:eb:87:
                    69:66:e3:38:ba:90:1c:db:f5:76:5d:ea:e6:ec:cd:
                    64:11:d1:b0:d7:2a:03:69:fc:d5:05:3d:69:ca:7d:
                    0a:ef:1c:a4:2f:af:0b:e5:32:24:94:36:99:ca:ee:
                    8a:3e:d5:94:11:a6:a6:14:bf:9d:2c:c7:ca:27:dd:
                    8d:bc:bd:56:67:3f:cd:ad:35:a2:d9:61:6a:10:a9:
                    71:68:b2:6d:bd:37:6e:f9:89:63:fc:9e:9b:3b:e3:
                    8a:0a:8b:6d:db:4b:f3:34:51:78:46:9c:6c:b3:a5:
                    22:31:0e:69:68:d3:79:fb:bd:67:22:42:d0:f1:73:
                    0b:8a:22:22:ef:5e:82:eb:0e:66:96:21:fc:00:5a:
                    b7:45:ed:1c:d8:c4:35:ae:b0:4a:24:ec:76:95:5c:
                    0a:65:e8:38:14:0e:f2:8d:cb:38:60:d0:1d:18:57:
                    a0:2f:fa:23:12:b8:f9:c1:b0:34:c1:ae:e1:cd:7e:
                    07:2a:52:86:1d:14:83:2d:1b:11:c0:41:72:72:2f:
                    e6:44:87:a2:d8:d9:02:95:31:e2:30:ed:55:d4:e4:
                    87:23:51:85:b3:1f:4a:90:2f:00:98:98:8c:22:f2:
                    f6:17:4e:4b:e8:7f:10:0a:ef:b1:c0:0b:33:25:b7:
                    73:7d
                Exponent: 65537 (0x10001)
        X509v3 extensions:
            X509v3 Basic Constraints: critical
                CA:FALSE
            X509v3 Extended Key Usage: 
                E-mail Protection
            X509v3 Authority Key Identifier: 
                keyid:B6:34:22:4D:08:1A:76:AE:E9:6E:49:AC:25:75:7E:BB:D4:78:40:77

            X509v3 Key Usage: critical
                Digital Signature
            X509v3 Subject Alternative Name: 
                DNS:mixed.directmix.lab
    Signature Algorithm: sha256WithRSAEncryption
         71:25:23:55:a2:ec:8e:44:9d:2b:82:a5:a8:bb:0f:0f:89:5c:
         23:b7:87:73:b9:83:85:71:1f:0f:ba:2d:05:e9:92:4b:e0:75:
         bd:bd:98:25:c1:f5:f4:d8:23:30:ef:e6:fa:05:8a:94:f0:d4:
         c9:cb:f7:8e:b1:46:2f:aa:fd:31:b2:5e:8c:4b:82:54:1f:e7:
         8a:ef:a3:e3:ab:98:8f:99:25:6e:9e:ad:7a:f0:1e:3e:26:8b:
         26:b8:54:4b:f9:f3:48:e8:dd:9d:5f:24:de:39:f3:3f:9b:6c:
         f5:51:45:86:76:c6:6d:30:73:ec:3e:69:88:40:ca:34:b8:51:
         e3:d8:aa:dd:bb:19:ea:51:53:91:e4:bc:30:51:b3:3b:8d:29:
         6c:1f:19:7e:63:29:01:f0:98:33:64:6e:24:b1:c5:ab:33:42:
         06:a0:c4:2f:b9:6c:36:5c:bd:4c:b4:38:b1:75:fc:9d:15:0a:
         60:4c:ea:dc:56:14:b9:c5:71:34:78:b1:6e:df:2b:4e:97:00:
         2b:a0:31:5f:c9:82:c0:cb:d7:1c:ca:a3:fc:7b:93:0f:62:34:
         87:1b:72:73:87:81:86:82:88:e4:27:c7:42:c0:8d:6a:35:ae:
         b0:d7:c3:a5:87:34:a6:40:d9:5d:dd:cf:e3:7e:5c:c4:77:74:
         76:62:db:28
-----BEGIN CERTIFICATE-----
MIIDKDCCAhCgAwIBAgIBPzANBgkqhkiG9w0BAQsFADAZMRcwFQYDVQQDDA5EaXJl
Y3RNaXguSGFyZDAeFw0xNjA3MDYxODE3MTFaFw0yNjA3MDQxODE3MTFaMB4xHDAa
BgNVBAMME21peGVkLmRpcmVjdG1peC5sYWIwggEiMA0GCSqGSIb3DQEBAQUAA4IB
DwAwggEKAoIBAQCv3wmP1DyNipyFxhHrh2lm4zi6kBzb9XZd6ubszWQR0bDXKgNp
/NUFPWnKfQrvHKQvrwvlMiSUNpnK7oo+1ZQRpqYUv50sx8on3Y28vVZnP82tNaLZ
YWoQqXFosm29N275iWP8nps744oKi23bS/M0UXhGnGyzpSIxDmlo03n7vWciQtDx
cwuKIiLvXoLrDmaWIfwAWrdF7RzYxDWusEok7HaVXApl6DgUDvKNyzhg0B0YV6Av
+iMSuPnBsDTBruHNfgcqUoYdFIMtGxHAQXJyL+ZEh6LY2QKVMeIw7VXU5IcjUYWz
H0qQLwCYmIwi8vYXTkvofxAK77HACzMlt3N9AgMBAAGjdjB0MAwGA1UdEwEB/wQC
MAAwEwYDVR0lBAwwCgYIKwYBBQUHAwQwHwYDVR0jBBgwFoAUtjQiTQgadq7pbkms
JXV+u9R4QHcwDgYDVR0PAQH/BAQDAgeAMB4GA1UdEQQXMBWCE21peGVkLmRpcmVj
dG1peC5sYWIwDQYJKoZIhvcNAQELBQADggEBAHElI1Wi7I5EnSuCpai7Dw+JXCO3
h3O5g4VxHw+6LQXpkkvgdb29mCXB9fTYIzDv5voFipTw1MnL946xRi+q/TGyXoxL
glQf54rvo+OrmI+ZJW6erXrwHj4miya4VEv580jo3Z1fJN458z+bbPVRRYZ2xm0w
c+w+aYhAyjS4UePYqt27GepRU5HkvDBRszuNKWwfGX5jKQHwmDNkbiSxxaszQgag
xC+5bDZcvUy0OLF1/J0VCmBM6txWFLnFcTR4sW7fK06XACugMV/JgsDL1xzKo/x7
kw9iNIcbcnOHgYaCiOQnx0LAjWo1rrDXw6WHNKZA2V3dz+N+XMR3dHZi2yg=
-----END CERTIFICATE-----
